Archive member included to satisfy reference by file (symbol)

/home/loxsete/opt/cross/lib/gcc/i686-elf/13.2.0/libgcc.a(_udivdi3.o)
                              build/c/info.o (__udivdi3)

There are no discarded input sections

Memory Configuration

Name             Origin             Length             Attributes
*default*        0x00000000         0xffffffff

Linker script and memory map

LOAD build/asm/kernel.o
LOAD build/c/utils.o
LOAD build/c/figures.o
LOAD build/c/drivers/multiboot.o
LOAD build/c/font.o
LOAD build/c/keyboard.o
LOAD build/c/kernel.o
LOAD build/c/info.o
LOAD build/c/graphics.o
LOAD /home/loxsete/opt/cross/lib/gcc/i686-elf/13.2.0/libgcc.a
                0x00100000                        . = 0x100000

.text           0x00100000     0x1fda
 *(.text)
 .text          0x00100000       0x6e build/asm/kernel.o
                0x0010003b                read_port
                0x00100041                write_port
                0x0010004b                load_idt
                0x00100054                keyboard_handler
                0x0010005a                start
 *fill*         0x0010006e        0x2 
 .text          0x00100070      0x38f build/c/utils.o
                0x00100070                my_strlen
                0x00100090                uint_to_str
                0x00100120                uint64_to_str
                0x00100240                trim_string
                0x001002f0                str_len
                0x00100310                str_cmp
                0x00100360                str_copy
                0x001003b0                strncmp
 *fill*         0x001003ff        0x1 
 .text          0x00100400      0x460 build/c/figures.o
                0x00100400                draw_square
                0x00100460                draw_rectangle
                0x001004c0                draw_circle
                0x00100550                draw_triangle
 .text          0x00100860       0x61 build/c/drivers/multiboot.o
                0x00100860                multiboot_parse
 *fill*         0x001008c1        0xf 
 .text          0x001008d0      0x175 build/c/font.o
                0x001008d0                character
                0x00100970                print_string
 *fill*         0x00100a45        0xb 
 .text          0x00100a50      0xc85 build/c/keyboard.o
                0x00100a50                debug_print
                0x00100ac0                debug_print_hex
                0x00100b40                com_init
                0x00100c60                com_send_char
                0x00100cd0                com_send_string
                0x00100d40                com_data_available
                0x00100d90                com_read_char
                0x00100e90                process_command
                0x00101310                idt_init
                0x001013f0                kb_init
                0x00101410                keyboard_handler_main
 *fill*         0x001016d5        0xb 
 .text          0x001016e0       0x84 build/c/kernel.o
                0x001016e0                kmain
 *fill*         0x00101764        0xc 
 .text          0x00101770      0x674 build/c/info.o
                0x001017f0                delay_ms
                0x00101850                get_cpu_info
                0x001018f0                estimate_cpu_frequency
                0x00101970                get_system_info
                0x00101a10                display_system_info
 *fill*         0x00101de4        0xc 
 .text          0x00101df0       0xcd build/c/graphics.o
                0x00101df0                fb_init
                0x00101e20                pixel
                0x00101e60                clear_screen
 *fill*         0x00101ebd        0x3 
 .text          0x00101ec0      0x11a /home/loxsete/opt/cross/lib/gcc/i686-elf/13.2.0/libgcc.a(_udivdi3.o)
                0x00101ec0                __udivdi3

.iplt           0x00101fda        0x0
 .iplt          0x00101fda        0x0 build/asm/kernel.o

.multiboot      0x00101fe0       0x30
 .multiboot     0x00101fe0       0x30 build/asm/kernel.o

.rodata.str1.1  0x00102010      0x31e
 .rodata.str1.1
                0x00102010      0x31e build/c/keyboard.o
                                0x2c9 (size before relaxing)
 .rodata.str1.1
                0x0010232e       0x1a build/c/kernel.o
 .rodata.str1.1
                0x0010232e       0x52 build/c/info.o

.rodata.cst2    0x0010232e        0x2
 .rodata.cst2   0x0010232e        0x2 build/c/keyboard.o

.eh_frame       0x00102330       0x64
 .eh_frame      0x00102330       0x64 /home/loxsete/opt/cross/lib/gcc/i686-elf/13.2.0/libgcc.a(_udivdi3.o)

.rel.dyn        0x00102394        0x0
 .rel.got       0x00102394        0x0 build/asm/kernel.o
 .rel.iplt      0x00102394        0x0 build/asm/kernel.o

.data           0x001023a0      0xe20
 *(.data)
 .data          0x001023a0        0x0 build/c/utils.o
 .data          0x001023a0        0x0 build/c/figures.o
 .data          0x001023a0        0x0 build/c/drivers/multiboot.o
 .data          0x001023a0      0xd00 build/c/font.o
                0x001023a0                font8x8_basic
 .data          0x001030a0      0x120 build/c/keyboard.o
                0x001030c0                shifted_keyboard_map
                0x00103140                keyboard_map
 .data          0x001031c0        0x0 build/c/kernel.o
 .data          0x001031c0        0x0 build/c/info.o
 .data          0x001031c0        0x0 build/c/graphics.o
 .data          0x001031c0        0x0 /home/loxsete/opt/cross/lib/gcc/i686-elf/13.2.0/libgcc.a(_udivdi3.o)

.got            0x001031c0        0x0
 .got           0x001031c0        0x0 build/asm/kernel.o

.got.plt        0x001031c0        0x0
 .got.plt       0x001031c0        0x0 build/asm/kernel.o

.igot.plt       0x001031c0        0x0
 .igot.plt      0x001031c0        0x0 build/asm/kernel.o

.bss            0x001031c0     0x2a4c
 *(.bss)
 .bss           0x001031c0     0x2000 build/asm/kernel.o
 .bss           0x001051c0        0x0 build/c/utils.o
 .bss           0x001051c0        0x0 build/c/figures.o
 .bss           0x001051c0        0x0 build/c/drivers/multiboot.o
 .bss           0x001051c0        0x0 build/c/font.o
 .bss           0x001051c0      0xa40 build/c/keyboard.o
 .bss           0x00105c00        0x0 build/c/kernel.o
 .bss           0x00105c00        0x0 build/c/info.o
 .bss           0x00105c00        0xc build/c/graphics.o
                0x00105c00                height
                0x00105c02                width
                0x00105c04                pitch
                0x00105c08                framebuffer
 .bss           0x00105c0c        0x0 /home/loxsete/opt/cross/lib/gcc/i686-elf/13.2.0/libgcc.a(_udivdi3.o)
OUTPUT(build/kernel.bin elf32-i386)

.debug_info     0x00000000     0x2ef0
 .debug_info    0x00000000      0x397 build/c/utils.o
 .debug_info    0x00000397      0x5a5 build/c/figures.o
 .debug_info    0x0000093c      0x1dd build/c/drivers/multiboot.o
 .debug_info    0x00000b19      0x3c0 build/c/font.o
 .debug_info    0x00000ed9      0xb60 build/c/keyboard.o
 .debug_info    0x00001a39      0x314 build/c/kernel.o
 .debug_info    0x00001d4d      0xc3c build/c/info.o
 .debug_info    0x00002989      0x23b build/c/graphics.o
 .debug_info    0x00002bc4      0x32c /home/loxsete/opt/cross/lib/gcc/i686-elf/13.2.0/libgcc.a(_udivdi3.o)

.debug_abbrev   0x00000000      0xf18
 .debug_abbrev  0x00000000      0x191 build/c/utils.o
 .debug_abbrev  0x00000191      0x1d8 build/c/figures.o
 .debug_abbrev  0x00000369       0xde build/c/drivers/multiboot.o
 .debug_abbrev  0x00000447      0x1c4 build/c/font.o
 .debug_abbrev  0x0000060b      0x2fa build/c/keyboard.o
 .debug_abbrev  0x00000905      0x116 build/c/kernel.o
 .debug_abbrev  0x00000a1b      0x2a4 build/c/info.o
 .debug_abbrev  0x00000cbf       0xfe build/c/graphics.o
 .debug_abbrev  0x00000dbd      0x15b /home/loxsete/opt/cross/lib/gcc/i686-elf/13.2.0/libgcc.a(_udivdi3.o)

.debug_loclists
                0x00000000     0x1a77
 .debug_loclists
                0x00000000      0x2b7 build/c/utils.o
 .debug_loclists
                0x000002b7      0x586 build/c/figures.o
 .debug_loclists
                0x0000083d       0x6e build/c/drivers/multiboot.o
 .debug_loclists
                0x000008ab      0x31d build/c/font.o
 .debug_loclists
                0x00000bc8      0x2bd build/c/keyboard.o
 .debug_loclists
                0x00000e85      0x6a6 build/c/info.o
 .debug_loclists
                0x0000152b       0x40 build/c/graphics.o
 .debug_loclists
                0x0000156b      0x50c /home/loxsete/opt/cross/lib/gcc/i686-elf/13.2.0/libgcc.a(_udivdi3.o)

.debug_aranges  0x00000000      0x120
 .debug_aranges
                0x00000000       0x20 build/c/utils.o
 .debug_aranges
                0x00000020       0x20 build/c/figures.o
 .debug_aranges
                0x00000040       0x20 build/c/drivers/multiboot.o
 .debug_aranges
                0x00000060       0x20 build/c/font.o
 .debug_aranges
                0x00000080       0x20 build/c/keyboard.o
 .debug_aranges
                0x000000a0       0x20 build/c/kernel.o
 .debug_aranges
                0x000000c0       0x20 build/c/info.o
 .debug_aranges
                0x000000e0       0x20 build/c/graphics.o
 .debug_aranges
                0x00000100       0x20 /home/loxsete/opt/cross/lib/gcc/i686-elf/13.2.0/libgcc.a(_udivdi3.o)

.debug_line     0x00000000     0x1d4b
 .debug_line    0x00000000      0x3c7 build/c/utils.o
 .debug_line    0x000003c7      0x53f build/c/figures.o
 .debug_line    0x00000906       0xbe build/c/drivers/multiboot.o
 .debug_line    0x000009c4      0x1f5 build/c/font.o
 .debug_line    0x00000bb9      0x708 build/c/keyboard.o
 .debug_line    0x000012c1       0xaa build/c/kernel.o
 .debug_line    0x0000136b      0x71d build/c/info.o
 .debug_line    0x00001a88      0x143 build/c/graphics.o
 .debug_line    0x00001bcb      0x180 /home/loxsete/opt/cross/lib/gcc/i686-elf/13.2.0/libgcc.a(_udivdi3.o)

.debug_str      0x00000000      0x72d
 .debug_str     0x00000000      0x72d build/c/utils.o
                                0x165 (size before relaxing)
 .debug_str     0x0000072d      0x194 build/c/figures.o
 .debug_str     0x0000072d      0x1c7 build/c/drivers/multiboot.o
 .debug_str     0x0000072d      0x15a build/c/font.o
 .debug_str     0x0000072d      0x356 build/c/keyboard.o
 .debug_str     0x0000072d      0x293 build/c/kernel.o
 .debug_str     0x0000072d      0x313 build/c/info.o
 .debug_str     0x0000072d      0x1d9 build/c/graphics.o
 .debug_str     0x0000072d      0x1e3 /home/loxsete/opt/cross/lib/gcc/i686-elf/13.2.0/libgcc.a(_udivdi3.o)

.debug_line_str
                0x00000000      0x1b8
 .debug_line_str
                0x00000000      0x1b8 build/c/utils.o
                                 0xab (size before relaxing)
 .debug_line_str
                0x000001b8       0xce build/c/figures.o
 .debug_line_str
                0x000001b8       0xdb build/c/drivers/multiboot.o
 .debug_line_str
                0x000001b8       0xb7 build/c/font.o
 .debug_line_str
                0x000001b8       0xe5 build/c/keyboard.o
 .debug_line_str
                0x000001b8       0xe6 build/c/kernel.o
 .debug_line_str
                0x000001b8       0xca build/c/info.o
 .debug_line_str
                0x000001b8       0xd3 build/c/graphics.o
 .debug_line_str
                0x000001b8       0xc2 /home/loxsete/opt/cross/lib/gcc/i686-elf/13.2.0/libgcc.a(_udivdi3.o)

.comment        0x00000000       0x12
 .comment       0x00000000       0x12 build/c/utils.o
                                 0x13 (size before relaxing)
 .comment       0x00000012       0x13 build/c/figures.o
 .comment       0x00000012       0x13 build/c/drivers/multiboot.o
 .comment       0x00000012       0x13 build/c/font.o
 .comment       0x00000012       0x13 build/c/keyboard.o
 .comment       0x00000012       0x13 build/c/kernel.o
 .comment       0x00000012       0x13 build/c/info.o
 .comment       0x00000012       0x13 build/c/graphics.o
 .comment       0x00000012       0x13 /home/loxsete/opt/cross/lib/gcc/i686-elf/13.2.0/libgcc.a(_udivdi3.o)

.debug_frame    0x00000000      0x6dc
 .debug_frame   0x00000000      0x194 build/c/utils.o
 .debug_frame   0x00000194       0xc8 build/c/figures.o
 .debug_frame   0x0000025c       0x38 build/c/drivers/multiboot.o
 .debug_frame   0x00000294       0x6c build/c/font.o
 .debug_frame   0x00000300      0x210 build/c/keyboard.o
 .debug_frame   0x00000510       0x30 build/c/kernel.o
 .debug_frame   0x00000540      0x11c build/c/info.o
 .debug_frame   0x0000065c       0x80 build/c/graphics.o

.debug_rnglists
                0x00000000      0x2d7
 .debug_rnglists
                0x00000000       0x9c build/c/figures.o
 .debug_rnglists
                0x0000009c       0x13 build/c/drivers/multiboot.o
 .debug_rnglists
                0x000000af       0x99 build/c/font.o
 .debug_rnglists
                0x00000148       0x77 build/c/keyboard.o
 .debug_rnglists
                0x000001bf       0xd7 build/c/info.o
 .debug_rnglists
                0x00000296       0x17 build/c/graphics.o
 .debug_rnglists
                0x000002ad       0x2a /home/loxsete/opt/cross/lib/gcc/i686-elf/13.2.0/libgcc.a(_udivdi3.o)
