Archive member included to satisfy reference by file (symbol)

/usr/lib/gcc/i686-elf/11.2.0/libgcc.a(_udivdi3.o)
                              build/c/info.o (__udivdi3)

There are no discarded input sections

Memory Configuration

Name             Origin             Length             Attributes
*default*        0x00000000         0xffffffff

Linker script and memory map

LOAD build/asm/kernel.o
LOAD build/c/kernel.o
LOAD build/c/graphics.o
LOAD build/c/info.o
LOAD build/c/figures.o
LOAD build/c/utils.o
LOAD build/c/drivers/multiboot.o
LOAD build/c/font.o
LOAD /usr/lib/gcc/i686-elf/11.2.0/libgcc.a
                0x00100000                        . = 0x100000

.text           0x00100000     0x12ca
 *(.text)
 .text          0x00100000        0xf build/asm/kernel.o
 *fill*         0x0010000f        0x1 
 .text          0x00100010       0x9b build/c/kernel.o
                0x00100010                kmain
 *fill*         0x001000ab        0x5 
 .text          0x001000b0       0xd7 build/c/graphics.o
                0x001000b0                fb_init
                0x001000e0                pixel
                0x00100120                clear_screen
 *fill*         0x00100187        0x9 
 .text          0x00100190      0x69a build/c/info.o
                0x00100210                delay_ms
                0x00100280                get_cpu_info
                0x00100320                estimate_cpu_frequency
                0x001003b0                get_system_info
                0x00100460                display_system_info
 *fill*         0x0010082a        0x6 
 .text          0x00100830      0x50f build/c/figures.o
                0x00100830                draw_square
                0x001008a0                draw_rectangle
                0x00100910                draw_circle
                0x001009b0                draw_triangle
 *fill*         0x00100d3f        0x1 
 .text          0x00100d40      0x287 build/c/utils.o
                0x00100d40                my_strlen
                0x00100d60                uint_to_str
                0x00100e00                uint64_to_str
                0x00100f10                trim_string
 *fill*         0x00100fc7        0x9 
 .text          0x00100fd0       0x69 build/c/drivers/multiboot.o
                0x00100fd0                multiboot_parse
 *fill*         0x00101039        0x7 
 .text          0x00101040      0x15a build/c/font.o
                0x00101040                character
                0x001010e0                print_string
 *fill*         0x0010119a        0x6 
 .text          0x001011a0      0x12a /usr/lib/gcc/i686-elf/11.2.0/libgcc.a(_udivdi3.o)
                0x001011a0                __udivdi3

.iplt           0x001012ca        0x0
 .iplt          0x001012ca        0x0 build/asm/kernel.o

.multiboot      0x001012d0       0x30
 .multiboot     0x001012d0       0x30 build/asm/kernel.o

.rodata.str1.1  0x00101300       0x66
 .rodata.str1.1
                0x00101300       0x66 build/c/kernel.o
                                 0x14 (size before relaxing)
 .rodata.str1.1
                0x00101366       0x52 build/c/info.o

.eh_frame       0x00101368       0x64
 .eh_frame      0x00101368       0x64 /usr/lib/gcc/i686-elf/11.2.0/libgcc.a(_udivdi3.o)

.rel.dyn        0x001013cc        0x0
 .rel.got       0x001013cc        0x0 build/asm/kernel.o
 .rel.iplt      0x001013cc        0x0 build/asm/kernel.o

.data           0x001013e0      0xd00
 *(.data)
 .data          0x001013e0        0x0 build/c/kernel.o
 .data          0x001013e0        0x0 build/c/graphics.o
 .data          0x001013e0        0x0 build/c/info.o
 .data          0x001013e0        0x0 build/c/figures.o
 .data          0x001013e0        0x0 build/c/utils.o
 .data          0x001013e0        0x0 build/c/drivers/multiboot.o
 .data          0x001013e0      0xd00 build/c/font.o
                0x001013e0                font8x8_basic
 .data          0x001020e0        0x0 /usr/lib/gcc/i686-elf/11.2.0/libgcc.a(_udivdi3.o)

.got            0x001020e0        0x0
 .got           0x001020e0        0x0 build/asm/kernel.o

.got.plt        0x001020e0        0x0
 .got.plt       0x001020e0        0x0 build/asm/kernel.o

.igot.plt       0x001020e0        0x0
 .igot.plt      0x001020e0        0x0 build/asm/kernel.o

.bss            0x001020e0     0x200c
 *(.bss)
 .bss           0x001020e0     0x2000 build/asm/kernel.o
 .bss           0x001040e0        0x0 build/c/kernel.o
 .bss           0x001040e0        0xc build/c/graphics.o
                0x001040e0                height
                0x001040e2                width
                0x001040e4                pitch
                0x001040e8                framebuffer
 .bss           0x001040ec        0x0 build/c/info.o
 .bss           0x001040ec        0x0 build/c/figures.o
 .bss           0x001040ec        0x0 build/c/utils.o
 .bss           0x001040ec        0x0 build/c/drivers/multiboot.o
 .bss           0x001040ec        0x0 build/c/font.o
 .bss           0x001040ec        0x0 /usr/lib/gcc/i686-elf/11.2.0/libgcc.a(_udivdi3.o)
OUTPUT(build/kernel.bin elf32-i386)

.debug_info     0x00000000     0x1ebe
 .debug_info    0x00000000      0x35c build/c/kernel.o
 .debug_info    0x0000035c      0x23c build/c/graphics.o
 .debug_info    0x00000598      0xc50 build/c/info.o
 .debug_info    0x000011e8      0x4a2 build/c/figures.o
 .debug_info    0x0000168a      0x26f build/c/utils.o
 .debug_info    0x000018f9      0x1dd build/c/drivers/multiboot.o
 .debug_info    0x00001ad6      0x3e8 build/c/font.o

.debug_abbrev   0x00000000      0xa73
 .debug_abbrev  0x00000000      0x131 build/c/kernel.o
 .debug_abbrev  0x00000131       0xfe build/c/graphics.o
 .debug_abbrev  0x0000022f      0x2a4 build/c/info.o
 .debug_abbrev  0x000004d3      0x18e build/c/figures.o
 .debug_abbrev  0x00000661      0x173 build/c/utils.o
 .debug_abbrev  0x000007d4       0xde build/c/drivers/multiboot.o
 .debug_abbrev  0x000008b2      0x1c1 build/c/font.o

.debug_aranges  0x00000000       0xe0
 .debug_aranges
                0x00000000       0x20 build/c/kernel.o
 .debug_aranges
                0x00000020       0x20 build/c/graphics.o
 .debug_aranges
                0x00000040       0x20 build/c/info.o
 .debug_aranges
                0x00000060       0x20 build/c/figures.o
 .debug_aranges
                0x00000080       0x20 build/c/utils.o
 .debug_aranges
                0x000000a0       0x20 build/c/drivers/multiboot.o
 .debug_aranges
                0x000000c0       0x20 build/c/font.o

.debug_line     0x00000000     0x1235
 .debug_line    0x00000000       0xd2 build/c/kernel.o
 .debug_line    0x000000d2      0x127 build/c/graphics.o
 .debug_line    0x000001f9      0x64b build/c/info.o
 .debug_line    0x00000844      0x558 build/c/figures.o
 .debug_line    0x00000d9c      0x258 build/c/utils.o
 .debug_line    0x00000ff4       0xbf build/c/drivers/multiboot.o
 .debug_line    0x000010b3      0x182 build/c/font.o

.debug_str      0x00000000      0x401
 .debug_str     0x00000000      0x401 build/c/kernel.o
                                0x2a8 (size before relaxing)
 .debug_str     0x00000401      0x1dd build/c/graphics.o
 .debug_str     0x00000401      0x313 build/c/info.o
 .debug_str     0x00000401      0x188 build/c/figures.o
 .debug_str     0x00000401      0x137 build/c/utils.o
 .debug_str     0x00000401      0x1c7 build/c/drivers/multiboot.o
 .debug_str     0x00000401      0x15a build/c/font.o

.debug_line_str
                0x00000000       0xfc
 .debug_line_str
                0x00000000       0xfc build/c/kernel.o
                                 0xd0 (size before relaxing)
 .debug_line_str
                0x000000fc       0xc8 build/c/graphics.o
 .debug_line_str
                0x000000fc       0xbf build/c/info.o
 .debug_line_str
                0x000000fc       0xc3 build/c/figures.o
 .debug_line_str
                0x000000fc       0xa0 build/c/utils.o
 .debug_line_str
                0x000000fc       0xd0 build/c/drivers/multiboot.o
 .debug_line_str
                0x000000fc       0xac build/c/font.o

.comment        0x00000000       0x12
 .comment       0x00000000       0x12 build/c/kernel.o
                                 0x13 (size before relaxing)
 .comment       0x00000012       0x13 build/c/graphics.o
 .comment       0x00000012       0x13 build/c/info.o
 .comment       0x00000012       0x13 build/c/figures.o
 .comment       0x00000012       0x13 build/c/utils.o
 .comment       0x00000012       0x13 build/c/drivers/multiboot.o
 .comment       0x00000012       0x13 build/c/font.o
 .comment       0x00000012       0x13 /usr/lib/gcc/i686-elf/11.2.0/libgcc.a(_udivdi3.o)

.debug_frame    0x00000000      0x434
 .debug_frame   0x00000000       0x30 build/c/kernel.o
 .debug_frame   0x00000030       0x80 build/c/graphics.o
 .debug_frame   0x000000b0      0x128 build/c/info.o
 .debug_frame   0x000001d8       0xd4 build/c/figures.o
 .debug_frame   0x000002ac       0xe4 build/c/utils.o
 .debug_frame   0x00000390       0x38 build/c/drivers/multiboot.o
 .debug_frame   0x000003c8       0x6c build/c/font.o

.debug_loclists
                0x00000000     0x12f6
 .debug_loclists
                0x00000000       0x3e build/c/graphics.o
 .debug_loclists
                0x0000003e      0x734 build/c/info.o
 .debug_loclists
                0x00000772      0x534 build/c/figures.o
 .debug_loclists
                0x00000ca6      0x28f build/c/utils.o
 .debug_loclists
                0x00000f35       0x6e build/c/drivers/multiboot.o
 .debug_loclists
                0x00000fa3      0x353 build/c/font.o

.debug_rnglists
                0x00000000      0x1ef
 .debug_rnglists
                0x00000000       0x17 build/c/graphics.o
 .debug_rnglists
                0x00000017       0xed build/c/info.o
 .debug_rnglists
                0x00000104       0x9c build/c/figures.o
 .debug_rnglists
                0x000001a0       0x13 build/c/drivers/multiboot.o
 .debug_rnglists
                0x000001b3       0x3c build/c/font.o
